target datalayout = "e-m:e-p270:32:32-p271:32:32-p272:64:64-i64:64-i128:128-f80:128-n8:16:32:64-S128"
target triple = "x86_64-pc-linux-gnu"

%"struct.faiss::ScalarQuantizer::SQuantizer" = type { ptr }
%"struct.faiss::(anonymous namespace)::Quantizer8bitDirect" = type { %"struct.faiss::ScalarQuantizer::SQuantizer", i64 }

; Function Attrs: mustprogress nounwind uwtable
define internal void @_ZNK5faiss12_GLOBAL__N_119Quantizer8bitDirectILi1EE13encode_vectorEPKfPh(ptr noundef nonnull align 8 dereferenceable(16) %0, ptr noundef %1, ptr noundef %2) unnamed_addr #1 align 2 {
  %4 = alloca ptr, align 8
  %5 = alloca ptr, align 8
  %6 = alloca ptr, align 8
  %7 = alloca i64, align 8
  store ptr %0, ptr %4, align 8
  store ptr %1, ptr %5, align 8
  store ptr %2, ptr %6, align 8
  %8 = load ptr, ptr %4, align 8
  store i64 0, ptr %7, align 8
  br label %9

9:                                                ; preds = %23, %3
  %10 = load i64, ptr %7, align 8
  %11 = getelementptr inbounds %"struct.faiss::(anonymous namespace)::Quantizer8bitDirect", ptr %8, i32 0, i32 1
  %12 = load i64, ptr %11, align 8
  %13 = icmp ult i64 %10, %12
  br i1 %13, label %14, label %26

14:                                               ; preds = %9
  %15 = load ptr, ptr %5, align 8
  %16 = load i64, ptr %7, align 8
  %17 = getelementptr inbounds float, ptr %15, i64 %16
  %18 = load float, ptr %17, align 4
  %19 = fptoui float %18 to i8
  %20 = load ptr, ptr %6, align 8
  %21 = load i64, ptr %7, align 8
  %22 = getelementptr inbounds i8, ptr %20, i64 %21
  store i8 %19, ptr %22, align 1
  br label %23

23:                                               ; preds = %14
  %24 = load i64, ptr %7, align 8
  %25 = add i64 %24, 1
  store i64 %25, ptr %7, align 8
  br label %9, !llvm.loop !43

26:                                               ; preds = %9
  ret void
}