; Function Attrs: mustprogress nofree norecurse nosync nounwind memory(argmem: readwrite) uwtable
define internal void @_ZNK5faiss12_GLOBAL__N_119Quantizer8bitDirectILi1EE13encode_vectorEPKfPh(ptr nocapture noundef nonnull readonly align 8 dereferenceable(16) %0, ptr nocapture noundef readonly %1, ptr nocapture noundef writeonly %2) unnamed_addr #17 align 2 {
  %4 = getelementptr inbounds i8, ptr %0, i64 8
  %5 = load i64, ptr %4, align 8
  %.not = icmp eq i64 %5, 0
  br i1 %.not, label %._crit_edge, label %.lr.ph

.lr.ph:                                           ; preds = %3, %.lr.ph
  %.06 = phi i64 [ %10, %.lr.ph ], [ 0, %3 ]
  %6 = getelementptr inbounds float, ptr %1, i64 %.06
  %7 = load float, ptr %6, align 4
  %8 = fptoui float %7 to i8
  %9 = getelementptr inbounds i8, ptr %2, i64 %.06
  store i8 %8, ptr %9, align 1
  %10 = add nuw i64 %.06, 1
  %11 = load i64, ptr %4, align 8
  %12 = icmp ult i64 %10, %11
  br i1 %12, label %.lr.ph, label %._crit_edge, !llvm.loop !42

._crit_edge:                                      ; preds = %.lr.ph, %3
  ret void
}